target datalayout = "e-m:e-p270:32:32-p271:32:32-p272:64:64-i64:64-i128:128-f80:128-n8:16:32:64-S128"
target triple = "x86_64-pc-linux-gnu"

%struct.Node = type { i32 }
%struct.Path = type { i32, i32, ptr, ptr, ptr, i8, i8, i32, double, i32, double, double, ptr }
%struct.CustomPath = type { %struct.Path, i32, ptr, ptr, ptr, ptr }
%struct.AppendPath = type { %struct.Path, ptr, i32, double }

; Function Attrs: nounwind uwtable
define dso_local zeroext i1 @is_projection_capable_path(ptr noundef %0) #0 {
  %2 = alloca i1, align 1
  %3 = alloca ptr, align 8
  store ptr %0, ptr %3, align 8
  %4 = load ptr, ptr %3, align 8
  %5 = getelementptr inbounds nuw %struct.Path, ptr %4, i32 0, i32 1
  %6 = load i32, ptr %5, align 4
  switch i32 %6, label %29 [
    i32 369, label %7
    i32 359, label %7
    i32 360, label %7
    i32 361, label %7
    i32 362, label %7
    i32 366, label %7
    i32 370, label %7
    i32 371, label %7
    i32 372, label %7
    i32 332, label %7
    i32 334, label %7
    i32 335, label %7
    i32 354, label %8
    i32 333, label %16
    i32 331, label %28
  ]

7:                                                ; preds = %1, %1, %1, %1, %1, %1, %1, %1, %1, %1, %1, %1
  store i1 false, ptr %2, align 1
  br label %31

8:                                                ; preds = %1
  %9 = load ptr, ptr %3, align 8
  %10 = getelementptr inbounds nuw %struct.CustomPath, ptr %9, i32 0, i32 1
  %11 = load i32, ptr %10, align 8
  %12 = and i32 %11, 4
  %13 = icmp ne i32 %12, 0
  br i1 %13, label %14, label %15

14:                                               ; preds = %8
  store i1 true, ptr %2, align 1
  br label %31

15:                                               ; preds = %8
  store i1 false, ptr %2, align 1
  br label %31

16:                                               ; preds = %1
  %17 = load ptr, ptr %3, align 8
  %18 = getelementptr inbounds nuw %struct.Node, ptr %17, i32 0, i32 0
  %19 = load i32, ptr %18, align 4
  %20 = icmp eq i32 %19, 289
  br i1 %20, label %21, label %26

21:                                               ; preds = %16
  %22 = load ptr, ptr %3, align 8
  %23 = getelementptr inbounds nuw %struct.AppendPath, ptr %22, i32 0, i32 1
  %24 = load ptr, ptr %23, align 8
  %25 = icmp eq ptr %24, null
  br label %26

26:                                               ; preds = %21, %16
  %27 = phi i1 [ false, %16 ], [ %25, %21 ]
  store i1 %27, ptr %2, align 1
  br label %31

28:                                               ; preds = %1
  store i1 false, ptr %2, align 1
  br label %31

29:                                               ; preds = %1
  br label %30

30:                                               ; preds = %29
  store i1 true, ptr %2, align 1
  br label %31

31:                                               ; preds = %30, %28, %26, %15, %14, %7
  %32 = load i1, ptr %2, align 1
  ret i1 %32
}