; Function Attrs: mustprogress nofree norecurse nosync nounwind willreturn memory(argmem: read) uwtable
define dso_local zeroext i1 @is_projection_capable_path(ptr noundef readonly captures(none) %0) local_unnamed_addr #4 {
  %2 = getelementptr inbounds nuw i8, ptr %0, i64 4
  %3 = load i32, ptr %2, align 4
  switch i32 %3, label %15 [
    i32 369, label %16
    i32 359, label %16
    i32 360, label %16
    i32 361, label %16
    i32 362, label %16
    i32 366, label %16
    i32 370, label %16
    i32 371, label %16
    i32 372, label %16
    i32 332, label %16
    i32 334, label %16
    i32 335, label %16
    i32 354, label %4
    i32 333, label %8
    i32 331, label %16
  ]

4:                                                ; preds = %1
  %5 = getelementptr inbounds nuw i8, ptr %0, i64 80
  %6 = load i32, ptr %5, align 8
  %7 = and i32 %6, 4
  %.not = icmp ne i32 %7, 0
  br label %16

8:                                                ; preds = %1
  %9 = load i32, ptr %0, align 4
  %10 = icmp eq i32 %9, 289
  br i1 %10, label %11, label %16

11:                                               ; preds = %8
  %12 = getelementptr inbounds nuw i8, ptr %0, i64 80
  %13 = load ptr, ptr %12, align 8
  %14 = icmp eq ptr %13, null
  br label %16

15:                                               ; preds = %1
  br label %16

16:                                               ; preds = %1, %8, %11, %4, %1, %1, %1, %1, %1, %1, %1, %1, %1, %1, %1, %1, %15
  %.0 = phi i1 [ true, %15 ], [ false, %1 ], [ false, %1 ], [ false, %1 ], [ false, %1 ], [ false, %1 ], [ false, %1 ], [ false, %1 ], [ false, %1 ], [ false, %1 ], [ false, %1 ], [ false, %1 ], [ false, %1 ], [ %.not, %4 ], [ false, %8 ], [ %14, %11 ], [ false, %1 ]
  ret i1 %.0
}